target datalayout = "e-m:e-p270:32:32-p271:32:32-p272:64:64-i64:64-i128:128-f80:128-n8:16:32:64-S128"
target triple = "x86_64-pc-linux-gnu"

%"class.google::protobuf::internal::ExplicitlyConstructed" = type { %"union.google::protobuf::internal::ExplicitlyConstructed<std::__cxx11::basic_string<char>>::AlignedUnion" }
%"union.google::protobuf::internal::ExplicitlyConstructed<std::__cxx11::basic_string<char>>::AlignedUnion" = type { i64, [24 x i8] }
%"class.google::protobuf::internal::InternalMetadata" = type { i64 }
%"class.google::protobuf::RepeatedField" = type { i32, i32, ptr }
%"class.google::protobuf::RepeatedField.2" = type { i32, i32, ptr }
%"class.google::protobuf::RepeatedField.3" = type { i32, i32, ptr }
%"class.google::protobuf::RepeatedField.0" = type { i32, i32, ptr }
%"class.google::protobuf::RepeatedField.1" = type { i32, i32, ptr }
%"struct.google::protobuf::internal::ArenaStringPtr" = type { %"class.google::protobuf::internal::TaggedPtr" }
%"class.google::protobuf::internal::TaggedPtr" = type { ptr }
%"class.opencv_tensorflow::TensorProto" = type <{ %"class.google::protobuf::Message", %"class.google::protobuf::RepeatedField", %"class.google::protobuf::RepeatedField.0", %"class.google::protobuf::RepeatedField.1", %"struct.std::atomic", [4 x i8], %"class.google::protobuf::RepeatedPtrField", %"class.google::protobuf::RepeatedField", %"class.google::protobuf::RepeatedField.2", %"struct.std::atomic", [4 x i8], %"class.google::protobuf::RepeatedField.3", %"class.google::protobuf::RepeatedField.0", %"class.google::protobuf::RepeatedField.1", %"struct.std::atomic", [4 x i8], %"struct.google::protobuf::internal::ArenaStringPtr", ptr, i32, i32, %"class.google::protobuf::internal::CachedSize", [4 x i8] }>
%"class.google::protobuf::Message" = type { %"class.google::protobuf::MessageLite" }
%"class.google::protobuf::MessageLite" = type { ptr, %"class.google::protobuf::internal::InternalMetadata" }
%"class.google::protobuf::RepeatedPtrField" = type { %"class.google::protobuf::internal::RepeatedPtrFieldBase" }
%"class.google::protobuf::internal::RepeatedPtrFieldBase" = type { ptr, i32, i32, ptr }
%"struct.std::atomic" = type { %"struct.std::__atomic_base" }
%"struct.std::__atomic_base" = type { i32 }
%"class.google::protobuf::internal::CachedSize" = type { %"struct.std::atomic" }

@_ZN6google8protobuf8internal26fixed_address_empty_stringB5cxx11E = external global %"class.google::protobuf::internal::ExplicitlyConstructed", align 8

; Function Attrs: mustprogress nounwind uwtable
define linkonce_odr hidden void @_ZN6google8protobuf8internal7memswapILi0EEENSt9enable_ifIXeqT_Li0EEvE4typeEPcS6_(ptr noundef %0, ptr noundef %1) #5 comdat {
  %3 = alloca ptr, align 8
  %4 = alloca ptr, align 8
  store ptr %0, ptr %3, align 8
  store ptr %1, ptr %4, align 8
  ret void
}

; Function Attrs: mustprogress nounwind uwtable
define linkonce_odr hidden void @_ZN6google8protobuf8internal9SwapBlockIoEEvPcS3_(ptr noundef %0, ptr noundef %1) #5 comdat {
  %3 = alloca ptr, align 8
  %4 = alloca ptr, align 8
  %5 = alloca i128, align 16
  store ptr %0, ptr %3, align 8
  store ptr %1, ptr %4, align 8
  %6 = load ptr, ptr %3, align 8
  call void @llvm.memcpy.p0.p0.i64(ptr align 16 %5, ptr align 1 %6, i64 16, i1 false)
  %7 = load ptr, ptr %3, align 8
  %8 = load ptr, ptr %4, align 8
  call void @llvm.memcpy.p0.p0.i64(ptr align 1 %7, ptr align 1 %8, i64 16, i1 false)
  %9 = load ptr, ptr %4, align 8
  call void @llvm.memcpy.p0.p0.i64(ptr align 1 %9, ptr align 16 %5, i64 16, i1 false)
  ret void
}

; Function Attrs: mustprogress nounwind uwtable
define linkonce_odr hidden noundef nonnull align 8 dereferenceable(32) ptr @_ZNK6google8protobuf8internal21ExplicitlyConstructedINSt7__cxx1112basic_stringIcSt11char_traitsIcESaIcEEEE3getEv(ptr noundef nonnull align 8 dereferenceable(32) %0) #5 comdat align 2 {
  %2 = alloca ptr, align 8
  store ptr %0, ptr %2, align 8
  %3 = load ptr, ptr %2, align 8
  %4 = getelementptr inbounds %"class.google::protobuf::internal::ExplicitlyConstructed", ptr %3, i32 0, i32 0
  ret ptr %4
}

; Function Attrs: mustprogress nounwind uwtable
define linkonce_odr hidden noundef ptr @_ZNK6google8protobuf8internal16InternalMetadata8PtrValueINS0_5ArenaEEEPT_v(ptr noundef nonnull align 8 dereferenceable(8) %0) #5 comdat align 2 {
  %2 = alloca ptr, align 8
  store ptr %0, ptr %2, align 8
  %3 = load ptr, ptr %2, align 8
  %4 = getelementptr inbounds %"class.google::protobuf::internal::InternalMetadata", ptr %3, i32 0, i32 0
  %5 = load i64, ptr %4, align 8
  %6 = and i64 %5, -4
  %7 = inttoptr i64 %6 to ptr
  ret ptr %7
}

; Function Attrs: mustprogress nounwind uwtable
define linkonce_odr hidden noundef ptr @_ZNK6google8protobuf8internal16InternalMetadata8PtrValueINS2_13ContainerBaseEEEPT_v(ptr noundef nonnull align 8 dereferenceable(8) %0) #5 comdat align 2 {
  %2 = alloca ptr, align 8
  store ptr %0, ptr %2, align 8
  %3 = load ptr, ptr %2, align 8
  %4 = getelementptr inbounds %"class.google::protobuf::internal::InternalMetadata", ptr %3, i32 0, i32 0
  %5 = load i64, ptr %4, align 8
  %6 = and i64 %5, -4
  %7 = inttoptr i64 %6 to ptr
  ret ptr %7
}

; Function Attrs: mustprogress uwtable
define linkonce_odr hidden void @_ZN6google8protobuf8internal7memswapILi16EEENSt9enable_ifIXaageT_Lm16EltT_lsLj1ELi31EEvE4typeEPcS6_(ptr noundef %0, ptr noundef %1) #4 comdat {
  %3 = alloca ptr, align 8
  %4 = alloca ptr, align 8
  store ptr %0, ptr %3, align 8
  store ptr %1, ptr %4, align 8
  %5 = load ptr, ptr %3, align 8
  %6 = load ptr, ptr %4, align 8
  call void @_ZN6google8protobuf8internal9SwapBlockIoEEvPcS3_(ptr noundef %5, ptr noundef %6)
  %7 = load ptr, ptr %3, align 8
  %8 = getelementptr inbounds i8, ptr %7, i64 16
  %9 = load ptr, ptr %4, align 8
  %10 = getelementptr inbounds i8, ptr %9, i64 16
  call void @_ZN6google8protobuf8internal7memswapILi0EEENSt9enable_ifIXeqT_Li0EEvE4typeEPcS6_(ptr noundef %8, ptr noundef %10)
  ret void
}

; Function Attrs: mustprogress nounwind uwtable
define linkonce_odr hidden void @_ZSt4swapIN6google8protobuf8internal9TaggedPtrINSt7__cxx1112basic_stringIcSt11char_traitsIcESaIcEEEEEENSt9enable_ifIXsr6__and_ISt6__not_ISt15__is_tuple_likeIT_EESt21is_move_constructibleISE_ESt18is_move_assignableISE_EEE5valueEvE4typeERSE_SN_(ptr noundef nonnull align 8 dereferenceable(8) %0, ptr noundef nonnull align 8 dereferenceable(8) %1) #5 comdat {
  %3 = alloca ptr, align 8
  %4 = alloca ptr, align 8
  %5 = alloca %"class.google::protobuf::internal::TaggedPtr", align 8
  store ptr %0, ptr %3, align 8
  store ptr %1, ptr %4, align 8
  %6 = load ptr, ptr %3, align 8
  call void @llvm.memcpy.p0.p0.i64(ptr align 8 %5, ptr align 8 %6, i64 8, i1 false)
  %7 = load ptr, ptr %4, align 8
  %8 = load ptr, ptr %3, align 8
  call void @llvm.memcpy.p0.p0.i64(ptr align 8 %8, ptr align 8 %7, i64 8, i1 false)
  %9 = load ptr, ptr %4, align 8
  call void @llvm.memcpy.p0.p0.i64(ptr align 8 %9, ptr align 8 %5, i64 8, i1 false)
  ret void
}

; Function Attrs: mustprogress uwtable
define linkonce_odr hidden noundef nonnull align 8 dereferenceable(32) ptr @_ZN6google8protobuf8internal27GetEmptyStringAlreadyInitedB5cxx11Ev() #4 comdat {
  %1 = call noundef nonnull align 8 dereferenceable(32) ptr @_ZNK6google8protobuf8internal21ExplicitlyConstructedINSt7__cxx1112basic_stringIcSt11char_traitsIcESaIcEEEE3getEv(ptr noundef nonnull align 8 dereferenceable(32) @_ZN6google8protobuf8internal26fixed_address_empty_stringB5cxx11E)
  ret ptr %1
}

; Function Attrs: mustprogress nounwind uwtable
define linkonce_odr void @_ZSt4swapIlENSt9enable_ifIXsr6__and_ISt6__not_ISt15__is_tuple_likeIT_EESt21is_move_constructibleIS3_ESt18is_move_assignableIS3_EEE5valueEvE4typeERS3_SC_(ptr noundef nonnull align 8 dereferenceable(8) %0, ptr noundef nonnull align 8 dereferenceable(8) %1) #5 comdat {
  %3 = alloca ptr, align 8
  %4 = alloca ptr, align 8
  %5 = alloca i64, align 8
  store ptr %0, ptr %3, align 8
  store ptr %1, ptr %4, align 8
  %6 = load ptr, ptr %3, align 8
  %7 = load i64, ptr %6, align 8
  store i64 %7, ptr %5, align 8
  %8 = load ptr, ptr %4, align 8
  %9 = load i64, ptr %8, align 8
  %10 = load ptr, ptr %3, align 8
  store i64 %9, ptr %10, align 8
  %11 = load i64, ptr %5, align 8
  %12 = load ptr, ptr %4, align 8
  store i64 %11, ptr %12, align 8
  ret void
}

; Function Attrs: mustprogress uwtable
define linkonce_odr hidden noundef ptr @_ZNK6google8protobuf11MessageLite21GetArenaForAllocationEv(ptr noundef nonnull align 8 dereferenceable(16) %0) #4 comdat align 2 {
  %2 = alloca ptr, align 8
  %3 = alloca ptr, align 8
  %4 = alloca ptr, align 8
  %5 = alloca ptr, align 8
  %6 = alloca ptr, align 8
  store ptr %0, ptr %6, align 8
  %7 = load ptr, ptr %6, align 8
  %8 = getelementptr inbounds %"class.google::protobuf::MessageLite", ptr %7, i32 0, i32 1
  store ptr %8, ptr %5, align 8
  %9 = load ptr, ptr %5, align 8
  store ptr %9, ptr %3, align 8
  %10 = load ptr, ptr %3, align 8
  store ptr %10, ptr %2, align 8
  %11 = load ptr, ptr %2, align 8
  %12 = load i64, ptr %11, align 8
  %13 = and i64 %12, 1
  %14 = icmp ne i64 %13, 0
  br i1 %14, label %15, label %18

15:                                               ; preds = %1
  %16 = call noundef ptr @_ZNK6google8protobuf8internal16InternalMetadata8PtrValueINS2_13ContainerBaseEEEPT_v(ptr noundef nonnull align 8 dereferenceable(8) %9)
  %17 = load ptr, ptr %16, align 8
  store ptr %17, ptr %4, align 8
  br label %20

18:                                               ; preds = %1
  %19 = call noundef ptr @_ZNK6google8protobuf8internal16InternalMetadata8PtrValueINS0_5ArenaEEEPT_v(ptr noundef nonnull align 8 dereferenceable(8) %9)
  store ptr %19, ptr %4, align 8
  br label %20

20:                                               ; preds = %18, %15
  %21 = load ptr, ptr %4, align 8
  ret ptr %21
}

; Function Attrs: mustprogress uwtable
define hidden void @_ZN17opencv_tensorflow11TensorProto12InternalSwapEPS0_(ptr noundef nonnull align 8 dereferenceable(224) %0, ptr noundef %1) #4 align 2 {
  %3 = alloca ptr, align 8
  %4 = alloca ptr, align 8
  %5 = alloca ptr, align 8
  %6 = alloca ptr, align 8
  %7 = alloca ptr, align 8
  %8 = alloca ptr, align 8
  %9 = alloca ptr, align 8
  %10 = alloca ptr, align 8
  %11 = alloca ptr, align 8
  %12 = alloca ptr, align 8
  %13 = alloca ptr, align 8
  store ptr %0, ptr %10, align 8
  store ptr %1, ptr %11, align 8
  %14 = load ptr, ptr %10, align 8
  %15 = call noundef ptr @_ZNK6google8protobuf11MessageLite21GetArenaForAllocationEv(ptr noundef nonnull align 8 dereferenceable(16) %14)
  store ptr %15, ptr %12, align 8
  %16 = load ptr, ptr %11, align 8
  %17 = call noundef ptr @_ZNK6google8protobuf11MessageLite21GetArenaForAllocationEv(ptr noundef nonnull align 8 dereferenceable(16) %16)
  store ptr %17, ptr %13, align 8
  %18 = getelementptr inbounds %"class.google::protobuf::MessageLite", ptr %14, i32 0, i32 1
  %19 = load ptr, ptr %11, align 8
  %20 = getelementptr inbounds %"class.google::protobuf::MessageLite", ptr %19, i32 0, i32 1
  store ptr %18, ptr %8, align 8
  store ptr %20, ptr %9, align 8
  %21 = load ptr, ptr %8, align 8
  %22 = load ptr, ptr %9, align 8
  call void @_ZSt4swapIlENSt9enable_ifIXsr6__and_ISt6__not_ISt15__is_tuple_likeIT_EESt21is_move_constructibleIS3_ESt18is_move_assignableIS3_EEE5valueEvE4typeERS3_SC_(ptr noundef nonnull align 8 dereferenceable(8) %21, ptr noundef nonnull align 8 dereferenceable(8) %22) #3
  %23 = getelementptr inbounds %"class.opencv_tensorflow::TensorProto", ptr %14, i32 0, i32 1
  %24 = load ptr, ptr %11, align 8
  %25 = getelementptr inbounds %"class.opencv_tensorflow::TensorProto", ptr %24, i32 0, i32 1
  call void @_ZN6google8protobuf13RepeatedFieldIfE12InternalSwapEPS2_(ptr noundef nonnull align 8 dereferenceable(16) %23, ptr noundef %25)
  %26 = getelementptr inbounds %"class.opencv_tensorflow::TensorProto", ptr %14, i32 0, i32 2
  %27 = load ptr, ptr %11, align 8
  %28 = getelementptr inbounds %"class.opencv_tensorflow::TensorProto", ptr %27, i32 0, i32 2
  call void @_ZN6google8protobuf13RepeatedFieldIdE12InternalSwapEPS2_(ptr noundef nonnull align 8 dereferenceable(16) %26, ptr noundef %28)
  %29 = getelementptr inbounds %"class.opencv_tensorflow::TensorProto", ptr %14, i32 0, i32 3
  %30 = load ptr, ptr %11, align 8
  %31 = getelementptr inbounds %"class.opencv_tensorflow::TensorProto", ptr %30, i32 0, i32 3
  call void @_ZN6google8protobuf13RepeatedFieldIiE12InternalSwapEPS2_(ptr noundef nonnull align 8 dereferenceable(16) %29, ptr noundef %31)
  %32 = getelementptr inbounds %"class.opencv_tensorflow::TensorProto", ptr %14, i32 0, i32 6
  %33 = load ptr, ptr %11, align 8
  %34 = getelementptr inbounds %"class.opencv_tensorflow::TensorProto", ptr %33, i32 0, i32 6
  call void @_ZN6google8protobuf16RepeatedPtrFieldINSt7__cxx1112basic_stringIcSt11char_traitsIcESaIcEEEE12InternalSwapEPS8_(ptr noundef nonnull align 8 dereferenceable(24) %32, ptr noundef %34)
  %35 = getelementptr inbounds %"class.opencv_tensorflow::TensorProto", ptr %14, i32 0, i32 7
  %36 = load ptr, ptr %11, align 8
  %37 = getelementptr inbounds %"class.opencv_tensorflow::TensorProto", ptr %36, i32 0, i32 7
  call void @_ZN6google8protobuf13RepeatedFieldIfE12InternalSwapEPS2_(ptr noundef nonnull align 8 dereferenceable(16) %35, ptr noundef %37)
  %38 = getelementptr inbounds %"class.opencv_tensorflow::TensorProto", ptr %14, i32 0, i32 8
  %39 = load ptr, ptr %11, align 8
  %40 = getelementptr inbounds %"class.opencv_tensorflow::TensorProto", ptr %39, i32 0, i32 8
  call void @_ZN6google8protobuf13RepeatedFieldIlE12InternalSwapEPS2_(ptr noundef nonnull align 8 dereferenceable(16) %38, ptr noundef %40)
  %41 = getelementptr inbounds %"class.opencv_tensorflow::TensorProto", ptr %14, i32 0, i32 11
  %42 = load ptr, ptr %11, align 8
  %43 = getelementptr inbounds %"class.opencv_tensorflow::TensorProto", ptr %42, i32 0, i32 11
  call void @_ZN6google8protobuf13RepeatedFieldIbE12InternalSwapEPS2_(ptr noundef nonnull align 8 dereferenceable(16) %41, ptr noundef %43)
  %44 = getelementptr inbounds %"class.opencv_tensorflow::TensorProto", ptr %14, i32 0, i32 12
  %45 = load ptr, ptr %11, align 8
  %46 = getelementptr inbounds %"class.opencv_tensorflow::TensorProto", ptr %45, i32 0, i32 12
  call void @_ZN6google8protobuf13RepeatedFieldIdE12InternalSwapEPS2_(ptr noundef nonnull align 8 dereferenceable(16) %44, ptr noundef %46)
  %47 = getelementptr inbounds %"class.opencv_tensorflow::TensorProto", ptr %14, i32 0, i32 13
  %48 = load ptr, ptr %11, align 8
  %49 = getelementptr inbounds %"class.opencv_tensorflow::TensorProto", ptr %48, i32 0, i32 13
  call void @_ZN6google8protobuf13RepeatedFieldIiE12InternalSwapEPS2_(ptr noundef nonnull align 8 dereferenceable(16) %47, ptr noundef %49)
  %50 = call noundef nonnull align 8 dereferenceable(32) ptr @_ZN6google8protobuf8internal27GetEmptyStringAlreadyInitedB5cxx11Ev()
  %51 = getelementptr inbounds %"class.opencv_tensorflow::TensorProto", ptr %14, i32 0, i32 16
  %52 = load ptr, ptr %12, align 8
  %53 = load ptr, ptr %11, align 8
  %54 = getelementptr inbounds %"class.opencv_tensorflow::TensorProto", ptr %53, i32 0, i32 16
  %55 = load ptr, ptr %13, align 8
  store ptr %50, ptr %3, align 8
  store ptr %51, ptr %4, align 8
  store ptr %52, ptr %5, align 8
  store ptr %54, ptr %6, align 8
  store ptr %55, ptr %7, align 8
  %56 = load ptr, ptr %6, align 8
  %57 = load ptr, ptr %4, align 8
  call void @_ZSt4swapIN6google8protobuf8internal9TaggedPtrINSt7__cxx1112basic_stringIcSt11char_traitsIcESaIcEEEEEENSt9enable_ifIXsr6__and_ISt6__not_ISt15__is_tuple_likeIT_EESt21is_move_constructibleISE_ESt18is_move_assignableISE_EEE5valueEvE4typeERSE_SN_(ptr noundef nonnull align 8 dereferenceable(8) %56, ptr noundef nonnull align 8 dereferenceable(8) %57) #3
  %58 = getelementptr inbounds %"class.opencv_tensorflow::TensorProto", ptr %14, i32 0, i32 17
  %59 = load ptr, ptr %11, align 8
  %60 = getelementptr inbounds %"class.opencv_tensorflow::TensorProto", ptr %59, i32 0, i32 17
  call void @_ZN6google8protobuf8internal7memswapILi16EEENSt9enable_ifIXaageT_Lm16EltT_lsLj1ELi31EEvE4typeEPcS6_(ptr noundef %58, ptr noundef %60)
  ret void
}