; Function Attrs: mustprogress uwtable
define hidden void @_ZN17opencv_tensorflow11TensorProto12InternalSwapEPS0_(ptr noundef nonnull align 8 dereferenceable(224) %0, ptr noundef %1) local_unnamed_addr #3 align 2 {
_ZNK6google8protobuf11MessageLite21GetArenaForAllocationEv.exit:
  %2 = getelementptr inbounds i8, ptr %0, i64 8
  %3 = load i64, ptr %2, align 8
  %4 = getelementptr inbounds i8, ptr %1, i64 8
  %5 = load i64, ptr %4, align 8
  store i64 %5, ptr %2, align 8
  store i64 %3, ptr %4, align 8
  %6 = getelementptr inbounds i8, ptr %0, i64 16
  %7 = getelementptr inbounds i8, ptr %1, i64 16
  tail call void @_ZN6google8protobuf13RepeatedFieldIfE12InternalSwapEPS2_(ptr noundef nonnull align 8 dereferenceable(16) %6, ptr noundef nonnull %7)
  %8 = getelementptr inbounds i8, ptr %0, i64 32
  %9 = getelementptr inbounds i8, ptr %1, i64 32
  tail call void @_ZN6google8protobuf13RepeatedFieldIdE12InternalSwapEPS2_(ptr noundef nonnull align 8 dereferenceable(16) %8, ptr noundef nonnull %9)
  %10 = getelementptr inbounds i8, ptr %0, i64 48
  %11 = getelementptr inbounds i8, ptr %1, i64 48
  tail call void @_ZN6google8protobuf13RepeatedFieldIiE12InternalSwapEPS2_(ptr noundef nonnull align 8 dereferenceable(16) %10, ptr noundef nonnull %11)
  %12 = getelementptr inbounds i8, ptr %0, i64 72
  %13 = getelementptr inbounds i8, ptr %1, i64 72
  tail call void @_ZN6google8protobuf16RepeatedPtrFieldINSt7__cxx1112basic_stringIcSt11char_traitsIcESaIcEEEE12InternalSwapEPS8_(ptr noundef nonnull align 8 dereferenceable(24) %12, ptr noundef nonnull %13)
  %14 = getelementptr inbounds i8, ptr %0, i64 96
  %15 = getelementptr inbounds i8, ptr %1, i64 96
  tail call void @_ZN6google8protobuf13RepeatedFieldIfE12InternalSwapEPS2_(ptr noundef nonnull align 8 dereferenceable(16) %14, ptr noundef nonnull %15)
  %16 = getelementptr inbounds i8, ptr %0, i64 112
  %17 = getelementptr inbounds i8, ptr %1, i64 112
  tail call void @_ZN6google8protobuf13RepeatedFieldIlE12InternalSwapEPS2_(ptr noundef nonnull align 8 dereferenceable(16) %16, ptr noundef nonnull %17)
  %18 = getelementptr inbounds i8, ptr %0, i64 136
  %19 = getelementptr inbounds i8, ptr %1, i64 136
  tail call void @_ZN6google8protobuf13RepeatedFieldIbE12InternalSwapEPS2_(ptr noundef nonnull align 8 dereferenceable(16) %18, ptr noundef nonnull %19)
  %20 = getelementptr inbounds i8, ptr %0, i64 152
  %21 = getelementptr inbounds i8, ptr %1, i64 152
  tail call void @_ZN6google8protobuf13RepeatedFieldIdE12InternalSwapEPS2_(ptr noundef nonnull align 8 dereferenceable(16) %20, ptr noundef nonnull %21)
  %22 = getelementptr inbounds i8, ptr %0, i64 168
  %23 = getelementptr inbounds i8, ptr %1, i64 168
  tail call void @_ZN6google8protobuf13RepeatedFieldIiE12InternalSwapEPS2_(ptr noundef nonnull align 8 dereferenceable(16) %22, ptr noundef nonnull %23)
  %24 = getelementptr inbounds i8, ptr %0, i64 192
  %25 = getelementptr inbounds i8, ptr %1, i64 192
  %.sroa.0.0.copyload.i = load ptr, ptr %25, align 8
  %26 = load i64, ptr %24, align 8
  store i64 %26, ptr %25, align 8
  store ptr %.sroa.0.0.copyload.i, ptr %24, align 8
  %27 = getelementptr inbounds i8, ptr %0, i64 200
  %28 = getelementptr inbounds i8, ptr %1, i64 200
  %.0.copyload.i.i = load i128, ptr %27, align 8
  tail call void @llvm.memcpy.p0.p0.i64(ptr noundef nonnull align 8 dereferenceable(16) %27, ptr noundef nonnull align 1 dereferenceable(16) %28, i64 16, i1 false)
  store i128 %.0.copyload.i.i, ptr %28, align 1
  ret void
}